target datalayout = "e-m:e-p270:32:32-p271:32:32-p272:64:64-i64:64-i128:128-f80:128-n8:16:32:64-S128"
target triple = "x86_64-pc-linux-gnu"

%"class.llvm::SmallPtrSetImplBase.base" = type <{ ptr, ptr, i32, i32, i32 }>
%"struct.llvm::AnalysisKey" = type { [8 x i8] }
%"class.llvm::PreservedAnalyses" = type { %"class.llvm::SmallPtrSet.164", %"class.llvm::SmallPtrSet.167" }
%"class.llvm::SmallPtrSet.164" = type { %"class.llvm::SmallPtrSetImpl.base.166", [2 x ptr] }
%"class.llvm::SmallPtrSetImpl.base.166" = type { %"class.llvm::SmallPtrSetImplBase.base" }
%"class.llvm::SmallPtrSet.167" = type { %"class.llvm::SmallPtrSetImpl.base.169", [2 x ptr] }
%"class.llvm::SmallPtrSetImpl.base.169" = type { %"class.llvm::SmallPtrSetImplBase.base" }
%"class.llvm::PreservedAnalyses::PreservedAnalysisChecker" = type <{ ptr, ptr, i8, [7 x i8] }>
%"class.llvm::SmallPtrSetImplBase" = type <{ ptr, ptr, i32, i32, i32, [4 x i8] }>

@_ZN4llvm18DependenceAnalysis3KeyE = global %"struct.llvm::AnalysisKey" zeroinitializer, align 8
@_ZN4llvm9AAManager3KeyE = external global %"struct.llvm::AnalysisKey", align 8
@_ZN4llvm23ScalarEvolutionAnalysis3KeyE = external global %"struct.llvm::AnalysisKey", align 8
@_ZN4llvm12LoopAnalysis3KeyE = external global %"struct.llvm::AnalysisKey", align 8

; Function Attrs: mustprogress nounwind uwtable
define linkonce_odr hidden noundef zeroext i1 @_ZNK4llvm19SmallPtrSetImplBase7isSmallEv(ptr noundef nonnull align 8 dereferenceable(28) %0) #1 comdat align 2 {
  %2 = alloca ptr, align 8
  store ptr %0, ptr %2, align 8
  %3 = load ptr, ptr %2, align 8
  %4 = getelementptr inbounds nuw %"class.llvm::SmallPtrSetImplBase", ptr %3, i32 0, i32 1
  %5 = load ptr, ptr %4, align 8
  %6 = getelementptr inbounds nuw %"class.llvm::SmallPtrSetImplBase", ptr %3, i32 0, i32 0
  %7 = load ptr, ptr %6, align 8
  %8 = icmp eq ptr %5, %7
  ret i1 %8
}

; Function Attrs: mustprogress nounwind uwtable
define linkonce_odr hidden noundef ptr @_ZN4llvm21PointerLikeTypeTraitsIPNS_11AnalysisKeyEE16getAsVoidPointerES2_(ptr noundef %0) #1 comdat align 2 {
  %2 = alloca ptr, align 8
  store ptr %0, ptr %2, align 8
  %3 = load ptr, ptr %2, align 8
  ret ptr %3
}

; Function Attrs: mustprogress nounwind uwtable
define linkonce_odr hidden noundef ptr @_ZNK4llvm19SmallPtrSetImplBase10EndPointerEv(ptr noundef nonnull align 8 dereferenceable(28) %0) #1 comdat align 2 {
  %2 = alloca ptr, align 8
  store ptr %0, ptr %2, align 8
  %3 = load ptr, ptr %2, align 8
  %4 = call noundef zeroext i1 @_ZNK4llvm19SmallPtrSetImplBase7isSmallEv(ptr noundef nonnull align 8 dereferenceable(28) %3)
  br i1 %4, label %5, label %12

5:                                                ; preds = %1
  %6 = getelementptr inbounds nuw %"class.llvm::SmallPtrSetImplBase", ptr %3, i32 0, i32 1
  %7 = load ptr, ptr %6, align 8
  %8 = getelementptr inbounds nuw %"class.llvm::SmallPtrSetImplBase", ptr %3, i32 0, i32 3
  %9 = load i32, ptr %8, align 4
  %10 = zext i32 %9 to i64
  %11 = getelementptr inbounds ptr, ptr %7, i64 %10
  br label %19

12:                                               ; preds = %1
  %13 = getelementptr inbounds nuw %"class.llvm::SmallPtrSetImplBase", ptr %3, i32 0, i32 1
  %14 = load ptr, ptr %13, align 8
  %15 = getelementptr inbounds nuw %"class.llvm::SmallPtrSetImplBase", ptr %3, i32 0, i32 2
  %16 = load i32, ptr %15, align 8
  %17 = zext i32 %16 to i64
  %18 = getelementptr inbounds ptr, ptr %14, i64 %17
  br label %19

19:                                               ; preds = %12, %5
  %20 = phi ptr [ %11, %5 ], [ %18, %12 ]
  ret ptr %20
}

; Function Attrs: mustprogress nounwind uwtable
define linkonce_odr hidden noundef ptr @_ZNK4llvm19SmallPtrSetImplBase8find_impEPKv(ptr noundef nonnull align 8 dereferenceable(28) %0, ptr noundef %1) #1 comdat align 2 {
  %3 = alloca ptr, align 8
  %4 = alloca ptr, align 8
  %5 = alloca ptr, align 8
  %6 = alloca ptr, align 8
  %7 = alloca ptr, align 8
  %8 = alloca ptr, align 8
  store ptr %0, ptr %4, align 8
  store ptr %1, ptr %5, align 8
  %9 = load ptr, ptr %4, align 8
  %10 = call noundef zeroext i1 @_ZNK4llvm19SmallPtrSetImplBase7isSmallEv(ptr noundef nonnull align 8 dereferenceable(28) %9)
  br i1 %10, label %11, label %37

11:                                               ; preds = %2
  %12 = getelementptr inbounds nuw %"class.llvm::SmallPtrSetImplBase", ptr %9, i32 0, i32 0
  %13 = load ptr, ptr %12, align 8
  store ptr %13, ptr %6, align 8
  %14 = getelementptr inbounds nuw %"class.llvm::SmallPtrSetImplBase", ptr %9, i32 0, i32 0
  %15 = load ptr, ptr %14, align 8
  %16 = getelementptr inbounds nuw %"class.llvm::SmallPtrSetImplBase", ptr %9, i32 0, i32 3
  %17 = load i32, ptr %16, align 4
  %18 = zext i32 %17 to i64
  %19 = getelementptr inbounds ptr, ptr %15, i64 %18
  store ptr %19, ptr %7, align 8
  br label %20

20:                                               ; preds = %32, %11
  %21 = load ptr, ptr %6, align 8
  %22 = load ptr, ptr %7, align 8
  %23 = icmp ne ptr %21, %22
  br i1 %23, label %24, label %35

24:                                               ; preds = %20
  %25 = load ptr, ptr %6, align 8
  %26 = load ptr, ptr %25, align 8
  %27 = load ptr, ptr %5, align 8
  %28 = icmp eq ptr %26, %27
  br i1 %28, label %29, label %31

29:                                               ; preds = %24
  %30 = load ptr, ptr %6, align 8
  store ptr %30, ptr %3, align 8
  br label %46

31:                                               ; preds = %24
  br label %32

32:                                               ; preds = %31
  %33 = load ptr, ptr %6, align 8
  %34 = getelementptr inbounds ptr, ptr %33, i32 1
  store ptr %34, ptr %6, align 8
  br label %20, !llvm.loop !58

35:                                               ; preds = %20
  %36 = call noundef ptr @_ZNK4llvm19SmallPtrSetImplBase10EndPointerEv(ptr noundef nonnull align 8 dereferenceable(28) %9)
  store ptr %36, ptr %3, align 8
  br label %46

37:                                               ; preds = %2
  %38 = load ptr, ptr %5, align 8
  %39 = call noundef ptr @_ZNK4llvm19SmallPtrSetImplBase6doFindEPKv(ptr noundef nonnull align 8 dereferenceable(28) %9, ptr noundef %38)
  store ptr %39, ptr %8, align 8
  %40 = load ptr, ptr %8, align 8
  %41 = icmp ne ptr %40, null
  br i1 %41, label %42, label %44

42:                                               ; preds = %37
  %43 = load ptr, ptr %8, align 8
  store ptr %43, ptr %3, align 8
  br label %46

44:                                               ; preds = %37
  %45 = call noundef ptr @_ZNK4llvm19SmallPtrSetImplBase10EndPointerEv(ptr noundef nonnull align 8 dereferenceable(28) %9)
  store ptr %45, ptr %3, align 8
  br label %46

46:                                               ; preds = %44, %42, %35, %29
  %47 = load ptr, ptr %3, align 8
  ret ptr %47
}

; Function Attrs: mustprogress nounwind uwtable
define linkonce_odr hidden noundef ptr @_ZN4llvm21PointerLikeTypeTraitsIPKNS_11AnalysisKeyEE16getAsVoidPointerES3_(ptr noundef %0) #1 comdat align 2 {
  %2 = alloca ptr, align 8
  store ptr %0, ptr %2, align 8
  %3 = load ptr, ptr %2, align 8
  %4 = call noundef ptr @_ZN4llvm21PointerLikeTypeTraitsIPNS_11AnalysisKeyEE16getAsVoidPointerES2_(ptr noundef %3)
  ret ptr %4
}

; Function Attrs: mustprogress nounwind uwtable
define linkonce_odr hidden noundef i32 @_ZNK4llvm15SmallPtrSetImplIPNS_11AnalysisKeyEE5countEPKS1_(ptr noundef nonnull align 8 dereferenceable(28) %0, ptr noundef %1) #1 comdat align 2 {
  %3 = alloca ptr, align 8
  %4 = alloca ptr, align 8
  store ptr %0, ptr %3, align 8
  store ptr %1, ptr %4, align 8
  %5 = load ptr, ptr %3, align 8
  %6 = load ptr, ptr %4, align 8
  %7 = call noundef ptr @_ZN4llvm21PointerLikeTypeTraitsIPKNS_11AnalysisKeyEE16getAsVoidPointerES3_(ptr noundef %6)
  %8 = call noundef ptr @_ZNK4llvm19SmallPtrSetImplBase8find_impEPKv(ptr noundef nonnull align 8 dereferenceable(28) %5, ptr noundef %7)
  %9 = call noundef ptr @_ZNK4llvm19SmallPtrSetImplBase10EndPointerEv(ptr noundef nonnull align 8 dereferenceable(28) %5)
  %10 = icmp ne ptr %8, %9
  %11 = zext i1 %10 to i32
  ret i32 %11
}

; Function Attrs: mustprogress nounwind uwtable
define linkonce_odr hidden noundef ptr @_ZN4llvm17AnalysisInfoMixinINS_12LoopAnalysisEE2IDEv() #1 comdat align 2 {
  ret ptr @_ZN4llvm12LoopAnalysis3KeyE
}

; Function Attrs: mustprogress nounwind uwtable
define linkonce_odr hidden noundef ptr @_ZN4llvm17AnalysisInfoMixinINS_23ScalarEvolutionAnalysisEE2IDEv() #1 comdat align 2 {
  ret ptr @_ZN4llvm23ScalarEvolutionAnalysis3KeyE
}

; Function Attrs: mustprogress nounwind uwtable
define linkonce_odr hidden noundef ptr @_ZN4llvm17AnalysisInfoMixinINS_9AAManagerEE2IDEv() #1 comdat align 2 {
  ret ptr @_ZN4llvm9AAManager3KeyE
}

; Function Attrs: mustprogress nounwind uwtable
define linkonce_odr hidden void @_ZN4llvm17PreservedAnalyses24PreservedAnalysisCheckerC2ERKS0_PNS_11AnalysisKeyE(ptr noundef nonnull align 8 dereferenceable(17) %0, ptr noundef nonnull align 8 dereferenceable(96) %1, ptr noundef %2) unnamed_addr #1 comdat align 2 {
  %4 = alloca ptr, align 8
  %5 = alloca ptr, align 8
  %6 = alloca ptr, align 8
  store ptr %0, ptr %4, align 8
  store ptr %1, ptr %5, align 8
  store ptr %2, ptr %6, align 8
  %7 = load ptr, ptr %4, align 8
  %8 = getelementptr inbounds nuw %"class.llvm::PreservedAnalyses::PreservedAnalysisChecker", ptr %7, i32 0, i32 0
  %9 = load ptr, ptr %5, align 8
  store ptr %9, ptr %8, align 8
  %10 = getelementptr inbounds nuw %"class.llvm::PreservedAnalyses::PreservedAnalysisChecker", ptr %7, i32 0, i32 1
  %11 = load ptr, ptr %6, align 8
  store ptr %11, ptr %10, align 8
  %12 = getelementptr inbounds nuw %"class.llvm::PreservedAnalyses::PreservedAnalysisChecker", ptr %7, i32 0, i32 2
  %13 = load ptr, ptr %5, align 8
  %14 = getelementptr inbounds nuw %"class.llvm::PreservedAnalyses", ptr %13, i32 0, i32 1
  %15 = load ptr, ptr %6, align 8
  %16 = call noundef i32 @_ZNK4llvm15SmallPtrSetImplIPNS_11AnalysisKeyEE5countEPKS1_(ptr noundef nonnull align 8 dereferenceable(28) %14, ptr noundef %15)
  %17 = icmp ne i32 %16, 0
  %18 = zext i1 %17 to i8
  store i8 %18, ptr %12, align 8
  ret void
}

; Function Attrs: mustprogress nounwind uwtable
define linkonce_odr hidden noundef ptr @_ZN4llvm17AnalysisInfoMixinINS_18DependenceAnalysisEE2IDEv() #1 comdat align 2 {
  ret ptr @_ZN4llvm18DependenceAnalysis3KeyE
}

; Function Attrs: mustprogress nounwind uwtable
define linkonce_odr hidden noundef zeroext i1 @_ZN4llvm15AnalysisManagerINS_8FunctionEJEE11Invalidator10invalidateINS_12LoopAnalysisEEEbRS1_RKNS_17PreservedAnalysesE(ptr noundef nonnull align 8 dereferenceable(16) %0, ptr noundef nonnull align 8 dereferenceable(136) %1, ptr noundef nonnull align 8 dereferenceable(96) %2) #1 comdat align 2 {
  %4 = alloca ptr, align 8
  %5 = alloca ptr, align 8
  %6 = alloca ptr, align 8
  store ptr %0, ptr %4, align 8
  store ptr %1, ptr %5, align 8
  store ptr %2, ptr %6, align 8
  %7 = load ptr, ptr %4, align 8
  %8 = call noundef ptr @_ZN4llvm17AnalysisInfoMixinINS_12LoopAnalysisEE2IDEv()
  %9 = load ptr, ptr %5, align 8
  %10 = load ptr, ptr %6, align 8
  %11 = call noundef zeroext i1 @_ZN4llvm15AnalysisManagerINS_8FunctionEJEE11Invalidator14invalidateImplINS_6detail19AnalysisResultModelIS1_NS_12LoopAnalysisENS_8LoopInfoES3_Lb1EEEEEbPNS_11AnalysisKeyERS1_RKNS_17PreservedAnalysesE(ptr noundef nonnull align 8 dereferenceable(16) %7, ptr noundef %8, ptr noundef nonnull align 8 dereferenceable(136) %9, ptr noundef nonnull align 8 dereferenceable(96) %10)
  ret i1 %11
}

; Function Attrs: mustprogress nounwind uwtable
define linkonce_odr hidden noundef zeroext i1 @_ZN4llvm15AnalysisManagerINS_8FunctionEJEE11Invalidator10invalidateINS_23ScalarEvolutionAnalysisEEEbRS1_RKNS_17PreservedAnalysesE(ptr noundef nonnull align 8 dereferenceable(16) %0, ptr noundef nonnull align 8 dereferenceable(136) %1, ptr noundef nonnull align 8 dereferenceable(96) %2) #1 comdat align 2 {
  %4 = alloca ptr, align 8
  %5 = alloca ptr, align 8
  %6 = alloca ptr, align 8
  store ptr %0, ptr %4, align 8
  store ptr %1, ptr %5, align 8
  store ptr %2, ptr %6, align 8
  %7 = load ptr, ptr %4, align 8
  %8 = call noundef ptr @_ZN4llvm17AnalysisInfoMixinINS_23ScalarEvolutionAnalysisEE2IDEv()
  %9 = load ptr, ptr %5, align 8
  %10 = load ptr, ptr %6, align 8
  %11 = call noundef zeroext i1 @_ZN4llvm15AnalysisManagerINS_8FunctionEJEE11Invalidator14invalidateImplINS_6detail19AnalysisResultModelIS1_NS_23ScalarEvolutionAnalysisENS_15ScalarEvolutionES3_Lb1EEEEEbPNS_11AnalysisKeyERS1_RKNS_17PreservedAnalysesE(ptr noundef nonnull align 8 dereferenceable(16) %7, ptr noundef %8, ptr noundef nonnull align 8 dereferenceable(136) %9, ptr noundef nonnull align 8 dereferenceable(96) %10)
  ret i1 %11
}

; Function Attrs: mustprogress nounwind uwtable
define linkonce_odr hidden noundef zeroext i1 @_ZN4llvm15AnalysisManagerINS_8FunctionEJEE11Invalidator10invalidateINS_9AAManagerEEEbRS1_RKNS_17PreservedAnalysesE(ptr noundef nonnull align 8 dereferenceable(16) %0, ptr noundef nonnull align 8 dereferenceable(136) %1, ptr noundef nonnull align 8 dereferenceable(96) %2) #1 comdat align 2 {
  %4 = alloca ptr, align 8
  %5 = alloca ptr, align 8
  %6 = alloca ptr, align 8
  store ptr %0, ptr %4, align 8
  store ptr %1, ptr %5, align 8
  store ptr %2, ptr %6, align 8
  %7 = load ptr, ptr %4, align 8
  %8 = call noundef ptr @_ZN4llvm17AnalysisInfoMixinINS_9AAManagerEE2IDEv()
  %9 = load ptr, ptr %5, align 8
  %10 = load ptr, ptr %6, align 8
  %11 = call noundef zeroext i1 @_ZN4llvm15AnalysisManagerINS_8FunctionEJEE11Invalidator14invalidateImplINS_6detail19AnalysisResultModelIS1_NS_9AAManagerENS_9AAResultsES3_Lb1EEEEEbPNS_11AnalysisKeyERS1_RKNS_17PreservedAnalysesE(ptr noundef nonnull align 8 dereferenceable(16) %7, ptr noundef %8, ptr noundef nonnull align 8 dereferenceable(136) %9, ptr noundef nonnull align 8 dereferenceable(96) %10)
  ret i1 %11
}

; Function Attrs: mustprogress nounwind uwtable
define linkonce_odr hidden void @_ZNK4llvm17PreservedAnalyses10getCheckerINS_18DependenceAnalysisEEENS0_24PreservedAnalysisCheckerEv(ptr dead_on_unwind noalias writable sret(%"class.llvm::PreservedAnalyses::PreservedAnalysisChecker") align 8 %0, ptr noundef nonnull align 8 dereferenceable(96) %1) #1 comdat align 2 {
  %3 = alloca ptr, align 8
  store ptr %1, ptr %3, align 8
  %4 = load ptr, ptr %3, align 8
  %5 = call noundef ptr @_ZN4llvm17AnalysisInfoMixinINS_18DependenceAnalysisEE2IDEv()
  call void @_ZN4llvm17PreservedAnalyses24PreservedAnalysisCheckerC2ERKS0_PNS_11AnalysisKeyE(ptr noundef nonnull align 8 dereferenceable(17) %0, ptr noundef nonnull align 8 dereferenceable(96) %4, ptr noundef %5)
  ret void
}

; Function Attrs: mustprogress nounwind uwtable
define dso_local noundef zeroext i1 @_ZN4llvm14DependenceInfo10invalidateERNS_8FunctionERKNS_17PreservedAnalysesERNS_15AnalysisManagerIS1_JEE11InvalidatorE(ptr noundef nonnull align 8 dereferenceable(44) %0, ptr noundef nonnull align 8 dereferenceable(136) %1, ptr noundef nonnull align 8 dereferenceable(96) %2, ptr noundef nonnull align 8 dereferenceable(16) %3) #1 align 2 {
  %5 = alloca i1, align 1
  %6 = alloca ptr, align 8
  %7 = alloca ptr, align 8
  %8 = alloca ptr, align 8
  %9 = alloca ptr, align 8
  %10 = alloca %"class.llvm::PreservedAnalyses::PreservedAnalysisChecker", align 8
  store ptr %0, ptr %6, align 8
  store ptr %1, ptr %7, align 8
  store ptr %2, ptr %8, align 8
  store ptr %3, ptr %9, align 8
  %11 = load ptr, ptr %8, align 8
  call void @_ZNK4llvm17PreservedAnalyses10getCheckerINS_18DependenceAnalysisEEENS0_24PreservedAnalysisCheckerEv(ptr dead_on_unwind writable sret(%"class.llvm::PreservedAnalyses::PreservedAnalysisChecker") align 8 %10, ptr noundef nonnull align 8 dereferenceable(96) %11)
  %12 = call noundef zeroext i1 @_ZN4llvm17PreservedAnalyses24PreservedAnalysisChecker9preservedEv(ptr noundef nonnull align 8 dereferenceable(17) %10)
  br i1 %12, label %16, label %13

13:                                               ; preds = %4
  %14 = call noundef zeroext i1 @_ZN4llvm17PreservedAnalyses24PreservedAnalysisChecker12preservedSetINS_13AllAnalysesOnINS_8FunctionEEEEEbv(ptr noundef nonnull align 8 dereferenceable(17) %10)
  br i1 %14, label %16, label %15

15:                                               ; preds = %13
  store i1 true, ptr %5, align 1
  br label %33

16:                                               ; preds = %13, %4
  %17 = load ptr, ptr %9, align 8
  %18 = load ptr, ptr %7, align 8
  %19 = load ptr, ptr %8, align 8
  %20 = call noundef zeroext i1 @_ZN4llvm15AnalysisManagerINS_8FunctionEJEE11Invalidator10invalidateINS_9AAManagerEEEbRS1_RKNS_17PreservedAnalysesE(ptr noundef nonnull align 8 dereferenceable(16) %17, ptr noundef nonnull align 8 dereferenceable(136) %18, ptr noundef nonnull align 8 dereferenceable(96) %19)
  br i1 %20, label %31, label %21

21:                                               ; preds = %16
  %22 = load ptr, ptr %9, align 8
  %23 = load ptr, ptr %7, align 8
  %24 = load ptr, ptr %8, align 8
  %25 = call noundef zeroext i1 @_ZN4llvm15AnalysisManagerINS_8FunctionEJEE11Invalidator10invalidateINS_23ScalarEvolutionAnalysisEEEbRS1_RKNS_17PreservedAnalysesE(ptr noundef nonnull align 8 dereferenceable(16) %22, ptr noundef nonnull align 8 dereferenceable(136) %23, ptr noundef nonnull align 8 dereferenceable(96) %24)
  br i1 %25, label %31, label %26

26:                                               ; preds = %21
  %27 = load ptr, ptr %9, align 8
  %28 = load ptr, ptr %7, align 8
  %29 = load ptr, ptr %8, align 8
  %30 = call noundef zeroext i1 @_ZN4llvm15AnalysisManagerINS_8FunctionEJEE11Invalidator10invalidateINS_12LoopAnalysisEEEbRS1_RKNS_17PreservedAnalysesE(ptr noundef nonnull align 8 dereferenceable(16) %27, ptr noundef nonnull align 8 dereferenceable(136) %28, ptr noundef nonnull align 8 dereferenceable(96) %29)
  br label %31

31:                                               ; preds = %26, %21, %16
  %32 = phi i1 [ true, %21 ], [ true, %16 ], [ %30, %26 ]
  store i1 %32, ptr %5, align 1
  br label %33

33:                                               ; preds = %31, %15
  %34 = load i1, ptr %5, align 1
  ret i1 %34
}