; Function Attrs: mustprogress nounwind uwtable
define dso_local noundef zeroext i1 @_ZN4llvm14DependenceInfo10invalidateERNS_8FunctionERKNS_17PreservedAnalysesERNS_15AnalysisManagerIS1_JEE11InvalidatorE(ptr nocapture noundef nonnull readnone align 8 dereferenceable(44) %0, ptr noundef nonnull align 8 dereferenceable(136) %1, ptr noundef nonnull align 8 dereferenceable(96) %2, ptr noundef nonnull align 8 dereferenceable(16) %3) local_unnamed_addr #0 align 2 {
  %5 = alloca %"class.llvm::PreservedAnalyses::PreservedAnalysisChecker", align 8
  tail call void @llvm.experimental.noalias.scope.decl(metadata !184)
  store ptr %2, ptr %5, align 8, !alias.scope !184
  %6 = getelementptr inbounds nuw i8, ptr %5, i64 8
  store ptr @_ZN4llvm18DependenceAnalysis3KeyE, ptr %6, align 8, !alias.scope !184
  %7 = getelementptr inbounds nuw i8, ptr %2, i64 48
  %8 = getelementptr inbounds i8, ptr %2, i64 56
  %9 = load ptr, ptr %8, align 8, !noalias !184
  %10 = load ptr, ptr %7, align 8, !noalias !184
  %11 = icmp eq ptr %9, %10
  br i1 %11, label %12, label %22

12:                                               ; preds = %4
  %13 = getelementptr inbounds i8, ptr %2, i64 68
  %14 = load i32, ptr %13, align 4, !noalias !184
  %15 = zext i32 %14 to i64
  %16 = getelementptr inbounds ptr, ptr %10, i64 %15
  %.not1317.i.i.i.i = icmp eq i32 %14, 0
  br i1 %.not1317.i.i.i.i, label %._crit_edge.i.i.i.i, label %.lr.ph.i.i.i.i

.lr.ph.i.i.i.i:                                   ; preds = %12, %19
  %.01118.i.i.i.i = phi ptr [ %20, %19 ], [ %10, %12 ]
  %17 = load ptr, ptr %.01118.i.i.i.i, align 8, !noalias !184
  %18 = icmp eq ptr %17, @_ZN4llvm18DependenceAnalysis3KeyE
  br i1 %18, label %_ZNK4llvm17PreservedAnalyses10getCheckerINS_18DependenceAnalysisEEENS0_24PreservedAnalysisCheckerEv.exit, label %19

19:                                               ; preds = %.lr.ph.i.i.i.i
  %20 = getelementptr inbounds i8, ptr %.01118.i.i.i.i, i64 8
  %.not13.i.i.i.i = icmp eq ptr %20, %16
  br i1 %.not13.i.i.i.i, label %._crit_edge.i.i.i.i, label %.lr.ph.i.i.i.i, !llvm.loop !187

._crit_edge.i.i.i.i:                              ; preds = %19, %12
  %21 = getelementptr inbounds ptr, ptr %9, i64 %15
  br label %_ZNK4llvm17PreservedAnalyses10getCheckerINS_18DependenceAnalysisEEENS0_24PreservedAnalysisCheckerEv.exit

22:                                               ; preds = %4
  %23 = tail call noundef ptr @_ZNK4llvm19SmallPtrSetImplBase6doFindEPKv(ptr noundef nonnull align 8 dereferenceable(28) %7, ptr noundef nonnull @_ZN4llvm18DependenceAnalysis3KeyE) #23, !noalias !184
  %.not.i.i.i.i = icmp eq ptr %23, null
  %.pre.i.i.i = load ptr, ptr %8, align 8, !noalias !184
  %.pre4.i.i.i = load ptr, ptr %7, align 8, !noalias !184
  br i1 %.not.i.i.i.i, label %24, label %._ZNK4llvm19SmallPtrSetImplBase8find_impEPKv.exit_crit_edge.i.i.i

._ZNK4llvm19SmallPtrSetImplBase8find_impEPKv.exit_crit_edge.i.i.i: ; preds = %22
  %.phi.trans.insert.i.i.i = getelementptr inbounds i8, ptr %2, i64 68
  %.pre5.i.i.i = load i32, ptr %.phi.trans.insert.i.i.i, align 4, !noalias !184
  br label %_ZNK4llvm17PreservedAnalyses10getCheckerINS_18DependenceAnalysisEEENS0_24PreservedAnalysisCheckerEv.exit

24:                                               ; preds = %22
  %25 = icmp eq ptr %.pre.i.i.i, %.pre4.i.i.i
  %26 = getelementptr inbounds i8, ptr %2, i64 68
  %27 = load i32, ptr %26, align 4, !noalias !184
  %28 = getelementptr inbounds i8, ptr %2, i64 64
  %29 = load i32, ptr %28, align 8, !noalias !184
  %.v.v.i14.i.i.i.i = select i1 %25, i32 %27, i32 %29
  %.v.i15.i.i.i.i = zext i32 %.v.v.i14.i.i.i.i to i64
  %30 = getelementptr inbounds ptr, ptr %.pre.i.i.i, i64 %.v.i15.i.i.i.i
  br label %_ZNK4llvm17PreservedAnalyses10getCheckerINS_18DependenceAnalysisEEENS0_24PreservedAnalysisCheckerEv.exit

_ZNK4llvm17PreservedAnalyses10getCheckerINS_18DependenceAnalysisEEENS0_24PreservedAnalysisCheckerEv.exit: ; preds = %.lr.ph.i.i.i.i, %._crit_edge.i.i.i.i, %._ZNK4llvm19SmallPtrSetImplBase8find_impEPKv.exit_crit_edge.i.i.i, %24
  %31 = phi i32 [ %14, %._crit_edge.i.i.i.i ], [ %27, %24 ], [ %.pre5.i.i.i, %._ZNK4llvm19SmallPtrSetImplBase8find_impEPKv.exit_crit_edge.i.i.i ], [ %14, %.lr.ph.i.i.i.i ]
  %32 = phi ptr [ %9, %._crit_edge.i.i.i.i ], [ %.pre4.i.i.i, %24 ], [ %.pre4.i.i.i, %._ZNK4llvm19SmallPtrSetImplBase8find_impEPKv.exit_crit_edge.i.i.i ], [ %9, %.lr.ph.i.i.i.i ]
  %33 = phi ptr [ %9, %._crit_edge.i.i.i.i ], [ %.pre.i.i.i, %24 ], [ %.pre.i.i.i, %._ZNK4llvm19SmallPtrSetImplBase8find_impEPKv.exit_crit_edge.i.i.i ], [ %9, %.lr.ph.i.i.i.i ]
  %.0.i.i.i.i = phi ptr [ %21, %._crit_edge.i.i.i.i ], [ %30, %24 ], [ %23, %._ZNK4llvm19SmallPtrSetImplBase8find_impEPKv.exit_crit_edge.i.i.i ], [ %.01118.i.i.i.i, %.lr.ph.i.i.i.i ]
  %34 = getelementptr inbounds nuw i8, ptr %5, i64 16
  %35 = icmp eq ptr %33, %32
  %36 = getelementptr inbounds i8, ptr %2, i64 64
  %37 = load i32, ptr %36, align 8, !noalias !184
  %.v.v.i.i.i.i = select i1 %35, i32 %31, i32 %37
  %.v.i.i.i.i = zext i32 %.v.v.i.i.i.i to i64
  %38 = getelementptr inbounds ptr, ptr %33, i64 %.v.i.i.i.i
  %39 = icmp ne ptr %.0.i.i.i.i, %38
  %40 = zext i1 %39 to i8
  store i8 %40, ptr %34, align 8, !alias.scope !184
  %41 = call noundef zeroext i1 @_ZN4llvm17PreservedAnalyses24PreservedAnalysisChecker9preservedEv(ptr noundef nonnull align 8 dereferenceable(17) %5)
  br i1 %41, label %44, label %42

42:                                               ; preds = %_ZNK4llvm17PreservedAnalyses10getCheckerINS_18DependenceAnalysisEEENS0_24PreservedAnalysisCheckerEv.exit
  %43 = call noundef zeroext i1 @_ZN4llvm17PreservedAnalyses24PreservedAnalysisChecker12preservedSetINS_13AllAnalysesOnINS_8FunctionEEEEEbv(ptr noundef nonnull align 8 dereferenceable(17) %5)
  br i1 %43, label %44, label %50

44:                                               ; preds = %42, %_ZNK4llvm17PreservedAnalyses10getCheckerINS_18DependenceAnalysisEEENS0_24PreservedAnalysisCheckerEv.exit
  %45 = call noundef zeroext i1 @_ZN4llvm15AnalysisManagerINS_8FunctionEJEE11Invalidator14invalidateImplINS_6detail19AnalysisResultModelIS1_NS_9AAManagerENS_9AAResultsES3_Lb1EEEEEbPNS_11AnalysisKeyERS1_RKNS_17PreservedAnalysesE(ptr noundef nonnull align 8 dereferenceable(16) %3, ptr noundef nonnull @_ZN4llvm9AAManager3KeyE, ptr noundef nonnull align 8 dereferenceable(136) %1, ptr noundef nonnull align 8 dereferenceable(96) %2)
  br i1 %45, label %50, label %46

46:                                               ; preds = %44
  %47 = call noundef zeroext i1 @_ZN4llvm15AnalysisManagerINS_8FunctionEJEE11Invalidator14invalidateImplINS_6detail19AnalysisResultModelIS1_NS_23ScalarEvolutionAnalysisENS_15ScalarEvolutionES3_Lb1EEEEEbPNS_11AnalysisKeyERS1_RKNS_17PreservedAnalysesE(ptr noundef nonnull align 8 dereferenceable(16) %3, ptr noundef nonnull @_ZN4llvm23ScalarEvolutionAnalysis3KeyE, ptr noundef nonnull align 8 dereferenceable(136) %1, ptr noundef nonnull align 8 dereferenceable(96) %2)
  br i1 %47, label %50, label %48

48:                                               ; preds = %46
  %49 = call noundef zeroext i1 @_ZN4llvm15AnalysisManagerINS_8FunctionEJEE11Invalidator14invalidateImplINS_6detail19AnalysisResultModelIS1_NS_12LoopAnalysisENS_8LoopInfoES3_Lb1EEEEEbPNS_11AnalysisKeyERS1_RKNS_17PreservedAnalysesE(ptr noundef nonnull align 8 dereferenceable(16) %3, ptr noundef nonnull @_ZN4llvm12LoopAnalysis3KeyE, ptr noundef nonnull align 8 dereferenceable(136) %1, ptr noundef nonnull align 8 dereferenceable(96) %2)
  br label %50

50:                                               ; preds = %44, %46, %48, %42
  %.0 = phi i1 [ true, %42 ], [ true, %46 ], [ true, %44 ], [ %49, %48 ]
  ret i1 %.0
}